target datalayout = "e-m:e-p270:32:32-p271:32:32-p272:64:64-i64:64-i128:128-f80:128-n8:16:32:64-S128"
target triple = "x86_64-pc-linux-gnu"

%struct.IDAMemRec = type { ptr, double, ptr, ptr, i32, double, double, ptr, i32, i32, ptr, ptr, i32, i32, i32, ptr, ptr, i32, i32, double, double, ptr, i32, i32, i32, i32, ptr, ptr, i32, ptr, ptr, ptr, i32, double, i32, i32, double, ptr, ptr, ptr, i32, ptr, ptr, i32, i32, i32, double, ptr, ptr, ptr, [6 x ptr], [6 x double], [6 x double], [6 x double], [6 x double], [6 x double], ptr, ptr, ptr, ptr, ptr, ptr, ptr, ptr, ptr, ptr, ptr, ptr, ptr, ptr, ptr, ptr, ptr, [6 x ptr], ptr, ptr, ptr, ptr, [6 x ptr], ptr, ptr, ptr, ptr, ptr, ptr, ptr, ptr, ptr, ptr, ptr, ptr, ptr, ptr, ptr, ptr, [6 x ptr], ptr, ptr, ptr, ptr, ptr, double, ptr, ptr, i32, i32, i32, i32, i32, i32, i32, i32, double, double, double, i32, double, i32, i32, i32, i32, i32, double, double, double, double, double, double, double, double, double, double, double, double, double, double, double, double, double, i32, i32, i32, i32, i64, double, double, double, double, double, double, double, double, double, i64, i64, i64, i64, i64, i64, i64, i64, i64, i64, i64, i64, i64, i64, i64, i64, i64, i64, i64, i64, i64, i64, i64, i64, i64, i64, double, i32, i32, i32, i32, i32, i32, i32, i32, i32, i32, i32, i32, i32, ptr, i32, ptr, i32, ptr, i32, ptr, ptr, ptr, ptr, ptr, ptr, i32, i32, ptr, ptr, ptr, ptr, ptr, ptr, ptr, double, i32, i32, ptr, i32, ptr, ptr, double, double, double, ptr, ptr, ptr, double, double, i32, i32, i64, ptr, i32, ptr, [5 x double], ptr, ptr, i32, ptr, i32 }
%struct.IDAadjMemRec = type { double, double, i32, i32, double, i32, double, ptr, i32, ptr, i32, ptr, ptr, i32, i64, i64, ptr, i64, i32, ptr, ptr, ptr, ptr, i32, i32, i32, i32, i32, [6 x ptr], [6 x ptr], [6 x double], ptr, ptr, ptr, ptr }
%struct.IDABMemRec = type { i32, double, ptr, i32, i32, ptr, ptr, ptr, ptr, ptr, ptr, ptr, ptr, ptr, double, ptr, ptr, ptr }

; Function Attrs: nounwind uwtable
define internal void @IDAAbckpbDelete(ptr noundef %0) #0 {
  %2 = alloca ptr, align 8
  %3 = alloca ptr, align 8
  %4 = alloca ptr, align 8
  %5 = alloca i32, align 4
  store ptr %0, ptr %2, align 8, !tbaa !97
  call void @llvm.lifetime.start.p0(i64 8, ptr %3) #6
  %6 = load ptr, ptr %2, align 8, !tbaa !97
  %7 = load ptr, ptr %6, align 8, !tbaa !99
  store ptr %7, ptr %3, align 8, !tbaa !99
  call void @llvm.lifetime.start.p0(i64 8, ptr %4) #6
  %8 = load ptr, ptr %3, align 8, !tbaa !99
  %9 = icmp eq ptr %8, null
  br i1 %9, label %10, label %11

10:                                               ; preds = %1
  store i32 1, ptr %5, align 4
  br label %48

11:                                               ; preds = %1
  %12 = load ptr, ptr %3, align 8, !tbaa !99
  %13 = getelementptr inbounds nuw %struct.IDABMemRec, ptr %12, i32 0, i32 17
  %14 = load ptr, ptr %13, align 8, !tbaa !100
  %15 = load ptr, ptr %2, align 8, !tbaa !97
  store ptr %14, ptr %15, align 8, !tbaa !99
  %16 = load ptr, ptr %3, align 8, !tbaa !99
  %17 = getelementptr inbounds nuw %struct.IDABMemRec, ptr %16, i32 0, i32 2
  %18 = load ptr, ptr %17, align 8, !tbaa !102
  store ptr %18, ptr %4, align 8, !tbaa !3
  call void @IDAFree(ptr noundef %4)
  %19 = load ptr, ptr %3, align 8, !tbaa !99
  %20 = getelementptr inbounds nuw %struct.IDABMemRec, ptr %19, i32 0, i32 11
  %21 = load ptr, ptr %20, align 8, !tbaa !103
  %22 = icmp ne ptr %21, null
  br i1 %22, label %23, label %29

23:                                               ; preds = %11
  %24 = load ptr, ptr %3, align 8, !tbaa !99
  %25 = getelementptr inbounds nuw %struct.IDABMemRec, ptr %24, i32 0, i32 11
  %26 = load ptr, ptr %25, align 8, !tbaa !103
  %27 = load ptr, ptr %3, align 8, !tbaa !99
  %28 = call i32 %26(ptr noundef %27)
  br label %29

29:                                               ; preds = %23, %11
  %30 = load ptr, ptr %3, align 8, !tbaa !99
  %31 = getelementptr inbounds nuw %struct.IDABMemRec, ptr %30, i32 0, i32 13
  %32 = load ptr, ptr %31, align 8, !tbaa !104
  %33 = icmp ne ptr %32, null
  br i1 %33, label %34, label %40

34:                                               ; preds = %29
  %35 = load ptr, ptr %3, align 8, !tbaa !99
  %36 = getelementptr inbounds nuw %struct.IDABMemRec, ptr %35, i32 0, i32 13
  %37 = load ptr, ptr %36, align 8, !tbaa !104
  %38 = load ptr, ptr %3, align 8, !tbaa !99
  %39 = call i32 %37(ptr noundef %38)
  br label %40

40:                                               ; preds = %34, %29
  %41 = load ptr, ptr %3, align 8, !tbaa !99
  %42 = getelementptr inbounds nuw %struct.IDABMemRec, ptr %41, i32 0, i32 15
  %43 = load ptr, ptr %42, align 8, !tbaa !105
  call void @N_VDestroy(ptr noundef %43)
  %44 = load ptr, ptr %3, align 8, !tbaa !99
  %45 = getelementptr inbounds nuw %struct.IDABMemRec, ptr %44, i32 0, i32 16
  %46 = load ptr, ptr %45, align 8, !tbaa !106
  call void @N_VDestroy(ptr noundef %46)
  %47 = load ptr, ptr %3, align 8, !tbaa !99
  call void @free(ptr noundef %47) #6
  store ptr null, ptr %3, align 8, !tbaa !99
  store i32 0, ptr %5, align 4
  br label %48

48:                                               ; preds = %40, %10
  call void @llvm.lifetime.end.p0(i64 8, ptr %4) #6
  call void @llvm.lifetime.end.p0(i64 8, ptr %3) #6
  %49 = load i32, ptr %5, align 4
  switch i32 %49, label %51 [
    i32 0, label %50
    i32 1, label %50
  ]

50:                                               ; preds = %48, %48
  ret void

51:                                               ; preds = %48
  unreachable
}

; Function Attrs: nounwind uwtable
define internal void @IDAAdataFree(ptr noundef %0) #0 {
  %2 = alloca ptr, align 8
  %3 = alloca ptr, align 8
  %4 = alloca i64, align 8
  %5 = alloca i32, align 4
  store ptr %0, ptr %2, align 8, !tbaa !11
  call void @llvm.lifetime.start.p0(i64 8, ptr %3) #6
  call void @llvm.lifetime.start.p0(i64 8, ptr %4) #6
  %6 = load ptr, ptr %2, align 8, !tbaa !11
  %7 = getelementptr inbounds nuw %struct.IDAMemRec, ptr %6, i32 0, i32 239
  %8 = load ptr, ptr %7, align 8, !tbaa !15
  store ptr %8, ptr %3, align 8, !tbaa !13
  %9 = load ptr, ptr %3, align 8, !tbaa !13
  %10 = icmp eq ptr %9, null
  br i1 %10, label %11, label %12

11:                                               ; preds = %1
  store i32 1, ptr %5, align 4
  br label %44

12:                                               ; preds = %1
  %13 = load ptr, ptr %3, align 8, !tbaa !13
  %14 = getelementptr inbounds nuw %struct.IDAadjMemRec, ptr %13, i32 0, i32 22
  %15 = load ptr, ptr %14, align 8, !tbaa !35
  %16 = load ptr, ptr %2, align 8, !tbaa !11
  call void %15(ptr noundef %16)
  store i64 0, ptr %4, align 8, !tbaa !7
  br label %17

17:                                               ; preds = %35, %12
  %18 = load i64, ptr %4, align 8, !tbaa !7
  %19 = load ptr, ptr %3, align 8, !tbaa !13
  %20 = getelementptr inbounds nuw %struct.IDAadjMemRec, ptr %19, i32 0, i32 14
  %21 = load i64, ptr %20, align 8, !tbaa !32
  %22 = icmp sle i64 %18, %21
  br i1 %22, label %23, label %38

23:                                               ; preds = %17
  %24 = load ptr, ptr %3, align 8, !tbaa !13
  %25 = getelementptr inbounds nuw %struct.IDAadjMemRec, ptr %24, i32 0, i32 16
  %26 = load ptr, ptr %25, align 8, !tbaa !51
  %27 = load i64, ptr %4, align 8, !tbaa !7
  %28 = getelementptr inbounds ptr, ptr %26, i64 %27
  %29 = load ptr, ptr %28, align 8, !tbaa !53
  call void @free(ptr noundef %29) #6
  %30 = load ptr, ptr %3, align 8, !tbaa !13
  %31 = getelementptr inbounds nuw %struct.IDAadjMemRec, ptr %30, i32 0, i32 16
  %32 = load ptr, ptr %31, align 8, !tbaa !51
  %33 = load i64, ptr %4, align 8, !tbaa !7
  %34 = getelementptr inbounds ptr, ptr %32, i64 %33
  store ptr null, ptr %34, align 8, !tbaa !53
  br label %35

35:                                               ; preds = %23
  %36 = load i64, ptr %4, align 8, !tbaa !7
  %37 = add nsw i64 %36, 1
  store i64 %37, ptr %4, align 8, !tbaa !7
  br label %17

38:                                               ; preds = %17
  %39 = load ptr, ptr %3, align 8, !tbaa !13
  %40 = getelementptr inbounds nuw %struct.IDAadjMemRec, ptr %39, i32 0, i32 16
  %41 = load ptr, ptr %40, align 8, !tbaa !51
  call void @free(ptr noundef %41) #6
  %42 = load ptr, ptr %3, align 8, !tbaa !13
  %43 = getelementptr inbounds nuw %struct.IDAadjMemRec, ptr %42, i32 0, i32 16
  store ptr null, ptr %43, align 8, !tbaa !51
  store i32 0, ptr %5, align 4
  br label %44

44:                                               ; preds = %38, %11
  call void @llvm.lifetime.end.p0(i64 8, ptr %4) #6
  call void @llvm.lifetime.end.p0(i64 8, ptr %3) #6
  %45 = load i32, ptr %5, align 4
  switch i32 %45, label %47 [
    i32 0, label %46
    i32 1, label %46
  ]

46:                                               ; preds = %44, %44
  ret void

47:                                               ; preds = %44
  unreachable
}

; Function Attrs: nounwind uwtable
define void @IDAAdjFree(ptr noundef %0) #0 {
  %2 = alloca ptr, align 8
  %3 = alloca ptr, align 8
  %4 = alloca ptr, align 8
  %5 = alloca i32, align 4
  store ptr %0, ptr %2, align 8, !tbaa !3
  call void @llvm.lifetime.start.p0(i64 8, ptr %3) #6
  call void @llvm.lifetime.start.p0(i64 8, ptr %4) #6
  %6 = load ptr, ptr %2, align 8, !tbaa !3
  %7 = icmp eq ptr %6, null
  br i1 %7, label %8, label %9

8:                                                ; preds = %1
  store i32 1, ptr %5, align 4
  br label %42

9:                                                ; preds = %1
  %10 = load ptr, ptr %2, align 8, !tbaa !3
  store ptr %10, ptr %3, align 8, !tbaa !11
  %11 = load ptr, ptr %3, align 8, !tbaa !11
  %12 = getelementptr inbounds nuw %struct.IDAMemRec, ptr %11, i32 0, i32 240
  %13 = load i32, ptr %12, align 8, !tbaa !50
  %14 = icmp ne i32 %13, 0
  br i1 %14, label %15, label %41

15:                                               ; preds = %9
  %16 = load ptr, ptr %3, align 8, !tbaa !11
  %17 = getelementptr inbounds nuw %struct.IDAMemRec, ptr %16, i32 0, i32 239
  %18 = load ptr, ptr %17, align 8, !tbaa !15
  store ptr %18, ptr %4, align 8, !tbaa !13
  br label %19

19:                                               ; preds = %24, %15
  %20 = load ptr, ptr %4, align 8, !tbaa !13
  %21 = getelementptr inbounds nuw %struct.IDAadjMemRec, ptr %20, i32 0, i32 11
  %22 = load ptr, ptr %21, align 8, !tbaa !24
  %23 = icmp ne ptr %22, null
  br i1 %23, label %24, label %27

24:                                               ; preds = %19
  %25 = load ptr, ptr %4, align 8, !tbaa !13
  %26 = getelementptr inbounds nuw %struct.IDAadjMemRec, ptr %25, i32 0, i32 11
  call void @IDAAckpntDelete(ptr noundef %26)
  br label %19

27:                                               ; preds = %19
  %28 = load ptr, ptr %3, align 8, !tbaa !11
  call void @IDAAdataFree(ptr noundef %28)
  br label %29

29:                                               ; preds = %34, %27
  %30 = load ptr, ptr %4, align 8, !tbaa !13
  %31 = getelementptr inbounds nuw %struct.IDAadjMemRec, ptr %30, i32 0, i32 7
  %32 = load ptr, ptr %31, align 8, !tbaa !42
  %33 = icmp ne ptr %32, null
  br i1 %33, label %34, label %37

34:                                               ; preds = %29
  %35 = load ptr, ptr %4, align 8, !tbaa !13
  %36 = getelementptr inbounds nuw %struct.IDAadjMemRec, ptr %35, i32 0, i32 7
  call void @IDAAbckpbDelete(ptr noundef %36)
  br label %29

37:                                               ; preds = %29
  %38 = load ptr, ptr %4, align 8, !tbaa !13
  call void @free(ptr noundef %38) #6
  %39 = load ptr, ptr %3, align 8, !tbaa !11
  %40 = getelementptr inbounds nuw %struct.IDAMemRec, ptr %39, i32 0, i32 239
  store ptr null, ptr %40, align 8, !tbaa !15
  br label %41

41:                                               ; preds = %37, %9
  store i32 0, ptr %5, align 4
  br label %42

42:                                               ; preds = %41, %8
  call void @llvm.lifetime.end.p0(i64 8, ptr %4) #6
  call void @llvm.lifetime.end.p0(i64 8, ptr %3) #6
  %43 = load i32, ptr %5, align 4
  switch i32 %43, label %45 [
    i32 0, label %44
    i32 1, label %44
  ]

44:                                               ; preds = %42, %42
  ret void

45:                                               ; preds = %42
  unreachable
}