; Function Attrs: nounwind uwtable
define void @IDAAdjFree(ptr noundef %0) local_unnamed_addr #0 {
  %2 = alloca ptr, align 8
  %3 = icmp eq ptr %0, null
  br i1 %3, label %48, label %4

4:                                                ; preds = %1
  %5 = getelementptr inbounds nuw i8, ptr %0, i64 2120
  %6 = load i32, ptr %5, align 8, !tbaa !46
  %.not = icmp eq i32 %6, 0
  br i1 %.not, label %48, label %7

7:                                                ; preds = %4
  %8 = getelementptr inbounds nuw i8, ptr %0, i64 2112
  %9 = load ptr, ptr %8, align 8, !tbaa !3
  %10 = getelementptr inbounds nuw i8, ptr %9, i64 80
  %11 = load ptr, ptr %10, align 8, !tbaa !76
  %.not1113 = icmp eq ptr %11, null
  br i1 %.not1113, label %._crit_edge.thread, label %.lr.ph

.lr.ph:                                           ; preds = %7, %.lr.ph
  tail call fastcc void @IDAAckpntDelete(ptr noundef nonnull %10)
  %12 = load ptr, ptr %10, align 8, !tbaa !76
  %.not11 = icmp eq ptr %12, null
  br i1 %.not11, label %._crit_edge, label %.lr.ph

._crit_edge:                                      ; preds = %.lr.ph
  %.pre = load ptr, ptr %8, align 8, !tbaa !3
  %13 = icmp eq ptr %.pre, null
  br i1 %13, label %IDAAdataFree.exit, label %._crit_edge.thread

._crit_edge.thread:                               ; preds = %7, %._crit_edge
  %14 = phi ptr [ %.pre, %._crit_edge ], [ %9, %7 ]
  %15 = getelementptr inbounds nuw i8, ptr %14, i64 168
  %16 = load ptr, ptr %15, align 8, !tbaa !31
  tail call void %16(ptr noundef nonnull %0) #9
  %17 = getelementptr inbounds nuw i8, ptr %14, i64 104
  %18 = load i64, ptr %17, align 8, !tbaa !23
  %.not13.i = icmp slt i64 %18, 0
  %.phi.trans.insert.i = getelementptr inbounds nuw i8, ptr %14, i64 120
  %.pre15.i = load ptr, ptr %.phi.trans.insert.i, align 8, !tbaa !25
  br i1 %.not13.i, label %._crit_edge.i, label %.lr.ph.i

.lr.ph.i:                                         ; preds = %._crit_edge.thread, %.lr.ph.i
  %19 = phi ptr [ %22, %.lr.ph.i ], [ %.pre15.i, %._crit_edge.thread ]
  %.014.i = phi i64 [ %24, %.lr.ph.i ], [ 0, %._crit_edge.thread ]
  %20 = getelementptr inbounds nuw ptr, ptr %19, i64 %.014.i
  %21 = load ptr, ptr %20, align 8, !tbaa !26
  tail call void @free(ptr noundef %21) #9
  %22 = load ptr, ptr %.phi.trans.insert.i, align 8, !tbaa !25
  %23 = getelementptr inbounds nuw ptr, ptr %22, i64 %.014.i
  store ptr null, ptr %23, align 8, !tbaa !26
  %24 = add nuw nsw i64 %.014.i, 1
  %25 = load i64, ptr %17, align 8, !tbaa !23
  %.not.not.i = icmp slt i64 %.014.i, %25
  br i1 %.not.not.i, label %.lr.ph.i, label %._crit_edge.i

._crit_edge.i:                                    ; preds = %.lr.ph.i, %._crit_edge.thread
  %26 = phi ptr [ %.pre15.i, %._crit_edge.thread ], [ %22, %.lr.ph.i ]
  tail call void @free(ptr noundef %26) #9
  store ptr null, ptr %.phi.trans.insert.i, align 8, !tbaa !25
  br label %IDAAdataFree.exit

IDAAdataFree.exit:                                ; preds = %._crit_edge, %._crit_edge.i
  %27 = getelementptr inbounds nuw i8, ptr %9, i64 48
  %28 = load ptr, ptr %27, align 8, !tbaa !38
  %.not1214 = icmp eq ptr %28, null
  br i1 %.not1214, label %._crit_edge16, label %.lr.ph15

.lr.ph15:                                         ; preds = %IDAAdataFree.exit, %IDAAbckpbDelete.exit
  %29 = phi ptr [ %47, %IDAAbckpbDelete.exit ], [ %28, %IDAAdataFree.exit ]
  call void @llvm.lifetime.start.p0(i64 8, ptr nonnull %2) #9
  %30 = getelementptr inbounds nuw i8, ptr %29, i64 128
  %31 = load ptr, ptr %30, align 8, !tbaa !85
  store ptr %31, ptr %27, align 8, !tbaa !88
  %32 = getelementptr inbounds nuw i8, ptr %29, i64 16
  %33 = load ptr, ptr %32, align 8, !tbaa !89
  store ptr %33, ptr %2, align 8, !tbaa !90
  call void @IDAFree(ptr noundef nonnull %2) #9
  %34 = getelementptr inbounds nuw i8, ptr %29, i64 80
  %35 = load ptr, ptr %34, align 8, !tbaa !91
  %.not.i = icmp eq ptr %35, null
  br i1 %.not.i, label %38, label %36

36:                                               ; preds = %.lr.ph15
  %37 = call i32 %35(ptr noundef nonnull %29) #9
  br label %38

38:                                               ; preds = %36, %.lr.ph15
  %39 = getelementptr inbounds nuw i8, ptr %29, i64 96
  %40 = load ptr, ptr %39, align 8, !tbaa !92
  %.not16.i = icmp eq ptr %40, null
  br i1 %.not16.i, label %IDAAbckpbDelete.exit, label %41

41:                                               ; preds = %38
  %42 = call i32 %40(ptr noundef nonnull %29) #9
  br label %IDAAbckpbDelete.exit

IDAAbckpbDelete.exit:                             ; preds = %38, %41
  %43 = getelementptr inbounds nuw i8, ptr %29, i64 112
  %44 = load ptr, ptr %43, align 8, !tbaa !93
  call void @N_VDestroy(ptr noundef %44) #9
  %45 = getelementptr inbounds nuw i8, ptr %29, i64 120
  %46 = load ptr, ptr %45, align 8, !tbaa !94
  call void @N_VDestroy(ptr noundef %46) #9
  call void @free(ptr noundef nonnull %29) #9
  call void @llvm.lifetime.end.p0(i64 8, ptr nonnull %2) #9
  %47 = load ptr, ptr %27, align 8, !tbaa !38
  %.not12 = icmp eq ptr %47, null
  br i1 %.not12, label %._crit_edge16, label %.lr.ph15

._crit_edge16:                                    ; preds = %IDAAbckpbDelete.exit, %IDAAdataFree.exit
  call void @free(ptr noundef nonnull %9) #9
  store ptr null, ptr %8, align 8, !tbaa !3
  br label %48

48:                                               ; preds = %4, %._crit_edge16, %1
  ret void
}